target datalayout = "e-m:e-p270:32:32-p271:32:32-p272:64:64-i64:64-i128:128-f80:128-n8:16:32:64-S128"
target triple = "x86_64-pc-linux-gnu"

; Function Attrs: nounwind uwtable
define internal i32 @isValidCurveGroup(i16 noundef zeroext %0) #0 {
  %2 = alloca i32, align 4
  %3 = alloca i16, align 2
  store i16 %0, ptr %3, align 2, !tbaa !94
  %4 = load i16, ptr %3, align 2, !tbaa !94
  %5 = zext i16 %4 to i32
  switch i32 %5, label %7 [
    i32 15, label %6
    i32 16, label %6
    i32 17, label %6
    i32 18, label %6
    i32 19, label %6
    i32 20, label %6
    i32 21, label %6
    i32 22, label %6
    i32 23, label %6
    i32 24, label %6
    i32 25, label %6
    i32 26, label %6
    i32 27, label %6
    i32 28, label %6
    i32 41, label %6
    i32 29, label %6
    i32 30, label %6
    i32 256, label %6
    i32 257, label %6
    i32 258, label %6
    i32 259, label %6
    i32 260, label %6
  ]

6:                                                ; preds = %1, %1, %1, %1, %1, %1, %1, %1, %1, %1, %1, %1, %1, %1, %1, %1, %1, %1, %1, %1, %1, %1
  store i32 1, ptr %2, align 4
  br label %8

7:                                                ; preds = %1
  store i32 0, ptr %2, align 4
  br label %8

8:                                                ; preds = %7, %6
  %9 = load i32, ptr %2, align 4
  ret i32 %9
}