; Function Attrs: mustprogress nofree norecurse nosync nounwind willreturn memory(none) uwtable
define internal fastcc range(i32 0, 2) i32 @isValidCurveGroup(i16 noundef zeroext %0) unnamed_addr #7 {
  switch i16 %0, label %2 [
    i16 15, label %3
    i16 16, label %3
    i16 17, label %3
    i16 18, label %3
    i16 19, label %3
    i16 20, label %3
    i16 21, label %3
    i16 22, label %3
    i16 23, label %3
    i16 24, label %3
    i16 25, label %3
    i16 26, label %3
    i16 27, label %3
    i16 28, label %3
    i16 41, label %3
    i16 29, label %3
    i16 30, label %3
    i16 256, label %3
    i16 257, label %3
    i16 258, label %3
    i16 259, label %3
    i16 260, label %3
  ]

2:                                                ; preds = %1
  br label %3

3:                                                ; preds = %1, %1, %1, %1, %1, %1, %1, %1, %1, %1, %1, %1, %1, %1, %1, %1, %1, %1, %1, %1, %1, %1, %2
  %.0 = phi i32 [ 0, %2 ], [ 1, %1 ], [ 1, %1 ], [ 1, %1 ], [ 1, %1 ], [ 1, %1 ], [ 1, %1 ], [ 1, %1 ], [ 1, %1 ], [ 1, %1 ], [ 1, %1 ], [ 1, %1 ], [ 1, %1 ], [ 1, %1 ], [ 1, %1 ], [ 1, %1 ], [ 1, %1 ], [ 1, %1 ], [ 1, %1 ], [ 1, %1 ], [ 1, %1 ], [ 1, %1 ], [ 1, %1 ]
  ret i32 %.0
}